target datalayout = "e-m:e-p270:32:32-p271:32:32-p272:64:64-i64:64-i128:128-f80:128-n8:16:32:64-S128"
target triple = "x86_64-pc-linux-gnu"

%struct.stbtt_bakedchar = type { i16, i16, i16, i16, float, float, float }
%struct.stbtt_aligned_quad = type { float, float, float, float, float, float, float, float }

; Function Attrs: nounwind uwtable
define void @stbtt_GetBakedQuad(ptr noundef %0, i32 noundef %1, i32 noundef %2, i32 noundef %3, ptr noundef %4, ptr noundef %5, ptr noundef %6, i32 noundef %7) #0 {
  %9 = alloca ptr, align 8
  %10 = alloca i32, align 4
  %11 = alloca i32, align 4
  %12 = alloca i32, align 4
  %13 = alloca ptr, align 8
  %14 = alloca ptr, align 8
  %15 = alloca ptr, align 8
  %16 = alloca i32, align 4
  %17 = alloca float, align 4
  %18 = alloca float, align 4
  %19 = alloca float, align 4
  %20 = alloca ptr, align 8
  %21 = alloca i32, align 4
  %22 = alloca i32, align 4
  store ptr %0, ptr %9, align 8, !tbaa !3
  store i32 %1, ptr %10, align 4, !tbaa !14
  store i32 %2, ptr %11, align 4, !tbaa !14
  store i32 %3, ptr %12, align 4, !tbaa !14
  store ptr %4, ptr %13, align 8, !tbaa !133
  store ptr %5, ptr %14, align 8, !tbaa !133
  store ptr %6, ptr %15, align 8, !tbaa !3
  store i32 %7, ptr %16, align 4, !tbaa !14
  call void @llvm.lifetime.start.p0(i64 4, ptr %17) #8
  %23 = load i32, ptr %16, align 4, !tbaa !14
  %24 = icmp ne i32 %23, 0
  %25 = select i1 %24, float 0.000000e+00, float -5.000000e-01
  store float %25, ptr %17, align 4, !tbaa !67
  call void @llvm.lifetime.start.p0(i64 4, ptr %18) #8
  %26 = load i32, ptr %10, align 4, !tbaa !14
  %27 = sitofp i32 %26 to float
  %28 = fdiv float 1.000000e+00, %27
  store float %28, ptr %18, align 4, !tbaa !67
  call void @llvm.lifetime.start.p0(i64 4, ptr %19) #8
  %29 = load i32, ptr %11, align 4, !tbaa !14
  %30 = sitofp i32 %29 to float
  %31 = fdiv float 1.000000e+00, %30
  store float %31, ptr %19, align 4, !tbaa !67
  call void @llvm.lifetime.start.p0(i64 8, ptr %20) #8
  %32 = load ptr, ptr %9, align 8, !tbaa !3
  %33 = load i32, ptr %12, align 4, !tbaa !14
  %34 = sext i32 %33 to i64
  %35 = getelementptr inbounds %struct.stbtt_bakedchar, ptr %32, i64 %34
  store ptr %35, ptr %20, align 8, !tbaa !3
  call void @llvm.lifetime.start.p0(i64 4, ptr %21) #8
  %36 = load ptr, ptr %13, align 8, !tbaa !133
  %37 = load float, ptr %36, align 4, !tbaa !67
  %38 = load ptr, ptr %20, align 8, !tbaa !3
  %39 = getelementptr inbounds nuw %struct.stbtt_bakedchar, ptr %38, i32 0, i32 4
  %40 = load float, ptr %39, align 4, !tbaa !172
  %41 = fadd float %37, %40
  %42 = fadd float %41, 5.000000e-01
  %43 = fpext float %42 to double
  %44 = call double @llvm.floor.f64(double %43)
  %45 = fptosi double %44 to i32
  store i32 %45, ptr %21, align 4, !tbaa !14
  call void @llvm.lifetime.start.p0(i64 4, ptr %22) #8
  %46 = load ptr, ptr %14, align 8, !tbaa !133
  %47 = load float, ptr %46, align 4, !tbaa !67
  %48 = load ptr, ptr %20, align 8, !tbaa !3
  %49 = getelementptr inbounds nuw %struct.stbtt_bakedchar, ptr %48, i32 0, i32 5
  %50 = load float, ptr %49, align 4, !tbaa !173
  %51 = fadd float %47, %50
  %52 = fadd float %51, 5.000000e-01
  %53 = fpext float %52 to double
  %54 = call double @llvm.floor.f64(double %53)
  %55 = fptosi double %54 to i32
  store i32 %55, ptr %22, align 4, !tbaa !14
  %56 = load i32, ptr %21, align 4, !tbaa !14
  %57 = sitofp i32 %56 to float
  %58 = load float, ptr %17, align 4, !tbaa !67
  %59 = fadd float %57, %58
  %60 = load ptr, ptr %15, align 8, !tbaa !3
  %61 = getelementptr inbounds nuw %struct.stbtt_aligned_quad, ptr %60, i32 0, i32 0
  store float %59, ptr %61, align 4, !tbaa !175
  %62 = load i32, ptr %22, align 4, !tbaa !14
  %63 = sitofp i32 %62 to float
  %64 = load float, ptr %17, align 4, !tbaa !67
  %65 = fadd float %63, %64
  %66 = load ptr, ptr %15, align 8, !tbaa !3
  %67 = getelementptr inbounds nuw %struct.stbtt_aligned_quad, ptr %66, i32 0, i32 1
  store float %65, ptr %67, align 4, !tbaa !177
  %68 = load i32, ptr %21, align 4, !tbaa !14
  %69 = load ptr, ptr %20, align 8, !tbaa !3
  %70 = getelementptr inbounds nuw %struct.stbtt_bakedchar, ptr %69, i32 0, i32 2
  %71 = load i16, ptr %70, align 4, !tbaa !169
  %72 = zext i16 %71 to i32
  %73 = add nsw i32 %68, %72
  %74 = load ptr, ptr %20, align 8, !tbaa !3
  %75 = getelementptr inbounds nuw %struct.stbtt_bakedchar, ptr %74, i32 0, i32 0
  %76 = load i16, ptr %75, align 4, !tbaa !166
  %77 = zext i16 %76 to i32
  %78 = sub nsw i32 %73, %77
  %79 = sitofp i32 %78 to float
  %80 = load float, ptr %17, align 4, !tbaa !67
  %81 = fadd float %79, %80
  %82 = load ptr, ptr %15, align 8, !tbaa !3
  %83 = getelementptr inbounds nuw %struct.stbtt_aligned_quad, ptr %82, i32 0, i32 4
  store float %81, ptr %83, align 4, !tbaa !178
  %84 = load i32, ptr %22, align 4, !tbaa !14
  %85 = load ptr, ptr %20, align 8, !tbaa !3
  %86 = getelementptr inbounds nuw %struct.stbtt_bakedchar, ptr %85, i32 0, i32 3
  %87 = load i16, ptr %86, align 2, !tbaa !170
  %88 = zext i16 %87 to i32
  %89 = add nsw i32 %84, %88
  %90 = load ptr, ptr %20, align 8, !tbaa !3
  %91 = getelementptr inbounds nuw %struct.stbtt_bakedchar, ptr %90, i32 0, i32 1
  %92 = load i16, ptr %91, align 2, !tbaa !168
  %93 = zext i16 %92 to i32
  %94 = sub nsw i32 %89, %93
  %95 = sitofp i32 %94 to float
  %96 = load float, ptr %17, align 4, !tbaa !67
  %97 = fadd float %95, %96
  %98 = load ptr, ptr %15, align 8, !tbaa !3
  %99 = getelementptr inbounds nuw %struct.stbtt_aligned_quad, ptr %98, i32 0, i32 5
  store float %97, ptr %99, align 4, !tbaa !179
  %100 = load ptr, ptr %20, align 8, !tbaa !3
  %101 = getelementptr inbounds nuw %struct.stbtt_bakedchar, ptr %100, i32 0, i32 0
  %102 = load i16, ptr %101, align 4, !tbaa !166
  %103 = zext i16 %102 to i32
  %104 = sitofp i32 %103 to float
  %105 = load float, ptr %18, align 4, !tbaa !67
  %106 = fmul float %104, %105
  %107 = load ptr, ptr %15, align 8, !tbaa !3
  %108 = getelementptr inbounds nuw %struct.stbtt_aligned_quad, ptr %107, i32 0, i32 2
  store float %106, ptr %108, align 4, !tbaa !180
  %109 = load ptr, ptr %20, align 8, !tbaa !3
  %110 = getelementptr inbounds nuw %struct.stbtt_bakedchar, ptr %109, i32 0, i32 1
  %111 = load i16, ptr %110, align 2, !tbaa !168
  %112 = zext i16 %111 to i32
  %113 = sitofp i32 %112 to float
  %114 = load float, ptr %19, align 4, !tbaa !67
  %115 = fmul float %113, %114
  %116 = load ptr, ptr %15, align 8, !tbaa !3
  %117 = getelementptr inbounds nuw %struct.stbtt_aligned_quad, ptr %116, i32 0, i32 3
  store float %115, ptr %117, align 4, !tbaa !181
  %118 = load ptr, ptr %20, align 8, !tbaa !3
  %119 = getelementptr inbounds nuw %struct.stbtt_bakedchar, ptr %118, i32 0, i32 2
  %120 = load i16, ptr %119, align 4, !tbaa !169
  %121 = zext i16 %120 to i32
  %122 = sitofp i32 %121 to float
  %123 = load float, ptr %18, align 4, !tbaa !67
  %124 = fmul float %122, %123
  %125 = load ptr, ptr %15, align 8, !tbaa !3
  %126 = getelementptr inbounds nuw %struct.stbtt_aligned_quad, ptr %125, i32 0, i32 6
  store float %124, ptr %126, align 4, !tbaa !182
  %127 = load ptr, ptr %20, align 8, !tbaa !3
  %128 = getelementptr inbounds nuw %struct.stbtt_bakedchar, ptr %127, i32 0, i32 3
  %129 = load i16, ptr %128, align 2, !tbaa !170
  %130 = zext i16 %129 to i32
  %131 = sitofp i32 %130 to float
  %132 = load float, ptr %19, align 4, !tbaa !67
  %133 = fmul float %131, %132
  %134 = load ptr, ptr %15, align 8, !tbaa !3
  %135 = getelementptr inbounds nuw %struct.stbtt_aligned_quad, ptr %134, i32 0, i32 7
  store float %133, ptr %135, align 4, !tbaa !183
  %136 = load ptr, ptr %20, align 8, !tbaa !3
  %137 = getelementptr inbounds nuw %struct.stbtt_bakedchar, ptr %136, i32 0, i32 6
  %138 = load float, ptr %137, align 4, !tbaa !171
  %139 = load ptr, ptr %13, align 8, !tbaa !133
  %140 = load float, ptr %139, align 4, !tbaa !67
  %141 = fadd float %140, %138
  store float %141, ptr %139, align 4, !tbaa !67
  call void @llvm.lifetime.end.p0(i64 4, ptr %22) #8
  call void @llvm.lifetime.end.p0(i64 4, ptr %21) #8
  call void @llvm.lifetime.end.p0(i64 8, ptr %20) #8
  call void @llvm.lifetime.end.p0(i64 4, ptr %19) #8
  call void @llvm.lifetime.end.p0(i64 4, ptr %18) #8
  call void @llvm.lifetime.end.p0(i64 4, ptr %17) #8
  ret void
}