; Function Attrs: mustprogress nofree norecurse nosync nounwind willreturn memory(argmem: readwrite) uwtable
define void @stbtt_GetBakedQuad(ptr noundef readonly captures(none) %0, i32 noundef %1, i32 noundef %2, i32 noundef %3, ptr noundef captures(none) %4, ptr noundef readonly captures(none) %5, ptr noundef writeonly captures(none) initializes((0, 32)) %6, i32 noundef %7) local_unnamed_addr #2 {
  %.not = icmp eq i32 %7, 0
  %9 = select i1 %.not, float -5.000000e-01, float 0.000000e+00
  %10 = sitofp i32 %1 to float
  %11 = fdiv float 1.000000e+00, %10
  %12 = sitofp i32 %2 to float
  %13 = fdiv float 1.000000e+00, %12
  %14 = sext i32 %3 to i64
  %15 = getelementptr inbounds %struct.stbtt_bakedchar, ptr %0, i64 %14
  %16 = load float, ptr %4, align 4, !tbaa !71
  %17 = getelementptr inbounds nuw i8, ptr %15, i64 8
  %18 = load float, ptr %17, align 4, !tbaa !151
  %19 = fadd float %16, %18
  %20 = fadd float %19, 5.000000e-01
  %21 = tail call float @llvm.floor.f32(float %20)
  %22 = fptosi float %21 to i32
  %23 = load float, ptr %5, align 4, !tbaa !71
  %24 = getelementptr inbounds nuw i8, ptr %15, i64 12
  %25 = load float, ptr %24, align 4, !tbaa !152
  %26 = fadd float %23, %25
  %27 = fadd float %26, 5.000000e-01
  %28 = tail call float @llvm.floor.f32(float %27)
  %29 = fptosi float %28 to i32
  %30 = sitofp i32 %22 to float
  %31 = fadd float %9, %30
  store float %31, ptr %6, align 4, !tbaa !154
  %32 = sitofp i32 %29 to float
  %33 = fadd float %9, %32
  %34 = getelementptr inbounds nuw i8, ptr %6, i64 4
  store float %33, ptr %34, align 4, !tbaa !156
  %35 = getelementptr inbounds nuw i8, ptr %15, i64 4
  %36 = load i16, ptr %35, align 4, !tbaa !148
  %37 = zext i16 %36 to i32
  %38 = add nsw i32 %37, %22
  %39 = load i16, ptr %15, align 4, !tbaa !145
  %40 = zext i16 %39 to i32
  %41 = sub i32 %38, %40
  %42 = sitofp i32 %41 to float
  %43 = fadd float %9, %42
  %44 = getelementptr inbounds nuw i8, ptr %6, i64 16
  store float %43, ptr %44, align 4, !tbaa !157
  %45 = getelementptr inbounds nuw i8, ptr %15, i64 6
  %46 = load i16, ptr %45, align 2, !tbaa !149
  %47 = zext i16 %46 to i32
  %48 = add nsw i32 %47, %29
  %49 = getelementptr inbounds nuw i8, ptr %15, i64 2
  %50 = load i16, ptr %49, align 2, !tbaa !147
  %51 = zext i16 %50 to i32
  %52 = sub i32 %48, %51
  %53 = sitofp i32 %52 to float
  %54 = fadd float %9, %53
  %55 = getelementptr inbounds nuw i8, ptr %6, i64 20
  store float %54, ptr %55, align 4, !tbaa !158
  %56 = uitofp i16 %39 to float
  %57 = fmul float %11, %56
  %58 = getelementptr inbounds nuw i8, ptr %6, i64 8
  store float %57, ptr %58, align 4, !tbaa !159
  %59 = uitofp i16 %50 to float
  %60 = fmul float %13, %59
  %61 = getelementptr inbounds nuw i8, ptr %6, i64 12
  store float %60, ptr %61, align 4, !tbaa !160
  %62 = uitofp i16 %36 to float
  %63 = fmul float %11, %62
  %64 = getelementptr inbounds nuw i8, ptr %6, i64 24
  store float %63, ptr %64, align 4, !tbaa !161
  %65 = uitofp i16 %46 to float
  %66 = fmul float %13, %65
  %67 = getelementptr inbounds nuw i8, ptr %6, i64 28
  store float %66, ptr %67, align 4, !tbaa !162
  %68 = getelementptr inbounds nuw i8, ptr %15, i64 16
  %69 = load float, ptr %68, align 4, !tbaa !150
  %70 = load float, ptr %4, align 4, !tbaa !71
  %71 = fadd float %69, %70
  store float %71, ptr %4, align 4, !tbaa !71
  ret void
}